target datalayout = "e-m:e-p270:32:32-p271:32:32-p272:64:64-i64:64-i128:128-f80:128-n8:16:32:64-S128"
target triple = "x86_64-pc-linux-gnu"

%struct.H5C_log_json_udata_t = type { ptr, ptr }
%struct.H5C_cache_entry_t = type { ptr, i64, i64, ptr, i8, ptr, i8, i8, i8, i8, i32, i8, i8, i8, i8, i8, i32, ptr, i32, i32, i32, i32, i32, i8, i8, ptr, ptr, ptr, ptr, ptr, ptr, i8, i32, i8, i64, ptr, i64, i64, i32, i8, i32, i32, i8, ptr, ptr, ptr }

@H5C_init_g = external global i8, align 1
@H5_libterm_g = external global i8, align 1
@.str = private unnamed_addr constant [105 x i8] c"generated/home/dtcxzyw/WorkSpace/Projects/compilers/llvm-opt-benchmark/bench/hdf5/hdf5/src/H5Clog_json.c\00", align 1
@H5E_CACHE_g = external global i64, align 8
@.str.3 = private unnamed_addr constant [3 x i8] c"%s\00", align 1
@H5E_LOGGING_g = external global i64, align 8
@.str.10 = private unnamed_addr constant [27 x i8] c"unable to emit log message\00", align 1
@__func__.H5C__json_write_log_message = private unnamed_addr constant [28 x i8] c"H5C__json_write_log_message\00", align 1
@.str.11 = private unnamed_addr constant [26 x i8] c"error writing log message\00", align 1
@.str.30 = private unnamed_addr constant [68 x i8] c"{\22timestamp\22:%lld,\22action\22:\22unpin\22,\22address\22:0x%lx,\22returned\22:%d},\0A\00", align 1
@__func__.H5C__json_write_unpin_entry_log_msg = private unnamed_addr constant [36 x i8] c"H5C__json_write_unpin_entry_log_msg\00", align 1

; Function Attrs: nounwind uwtable
define internal i32 @H5C__json_write_log_message(ptr noundef %0) #0 {
  %2 = alloca ptr, align 8
  %3 = alloca i64, align 8
  %4 = alloca i32, align 4
  %5 = alloca i8, align 1
  store ptr %0, ptr %2, align 8, !tbaa !12
  call void @llvm.lifetime.start.p0(i64 8, ptr %3) #8
  call void @llvm.lifetime.start.p0(i64 4, ptr %4) #8
  store i32 0, ptr %4, align 4, !tbaa !10
  call void @llvm.lifetime.start.p0(i64 1, ptr %5) #8
  store i8 0, ptr %5, align 1, !tbaa !14
  %6 = load i8, ptr @H5C_init_g, align 1, !tbaa !14, !range !16, !noundef !17
  %7 = trunc i8 %6 to i1
  br i1 %7, label %12, label %8

8:                                                ; preds = %1
  %9 = load i8, ptr @H5_libterm_g, align 1, !tbaa !14, !range !16, !noundef !17
  %10 = trunc i8 %9 to i1
  %11 = xor i1 %10, true
  br label %12

12:                                               ; preds = %8, %1
  %13 = phi i1 [ true, %1 ], [ %11, %8 ]
  %14 = xor i1 %13, true
  %15 = xor i1 %14, true
  %16 = zext i1 %15 to i32
  %17 = sext i32 %16 to i64
  %18 = call i64 @llvm.expect.i64(i64 %17, i64 1)
  %19 = icmp ne i64 %18, 0
  br i1 %19, label %20, label %61

20:                                               ; preds = %12
  %21 = load ptr, ptr %2, align 8, !tbaa !12
  %22 = getelementptr inbounds nuw %struct.H5C_log_json_udata_t, ptr %21, i32 0, i32 1
  %23 = load ptr, ptr %22, align 8, !tbaa !24
  %24 = call i64 @strlen(ptr noundef %23) #10
  store i64 %24, ptr %3, align 8, !tbaa !22
  %25 = load i64, ptr %3, align 8, !tbaa !22
  %26 = trunc i64 %25 to i32
  %27 = load ptr, ptr %2, align 8, !tbaa !12
  %28 = getelementptr inbounds nuw %struct.H5C_log_json_udata_t, ptr %27, i32 0, i32 0
  %29 = load ptr, ptr %28, align 8, !tbaa !27
  %30 = load ptr, ptr %2, align 8, !tbaa !12
  %31 = getelementptr inbounds nuw %struct.H5C_log_json_udata_t, ptr %30, i32 0, i32 1
  %32 = load ptr, ptr %31, align 8, !tbaa !24
  %33 = call i32 (ptr, ptr, ...) @fprintf(ptr noundef %29, ptr noundef @.str.3, ptr noundef %32) #8
  %34 = icmp ne i32 %26, %33
  br i1 %34, label %35, label %54

35:                                               ; preds = %20
  br label %36

36:                                               ; preds = %35
  br label %37

37:                                               ; preds = %36
  br label %38

38:                                               ; preds = %37
  %39 = load i64, ptr @H5E_CACHE_g, align 8, !tbaa !22
  %40 = load i64, ptr @H5E_LOGGING_g, align 8, !tbaa !22
  %41 = call i32 (ptr, ptr, i32, i64, i64, ptr, ...) @H5E_printf_stack(ptr noundef @.str, ptr noundef @__func__.H5C__json_write_log_message, i32 noundef 173, i64 noundef %39, i64 noundef %40, ptr noundef @.str.11)
  br label %42

42:                                               ; preds = %38
  br label %43

43:                                               ; preds = %42
  store i8 1, ptr %5, align 1, !tbaa !14
  %44 = load i8, ptr %5, align 1, !tbaa !14, !range !16, !noundef !17
  %45 = trunc i8 %44 to i1
  %46 = zext i1 %45 to i8
  store i8 %46, ptr %5, align 1, !tbaa !14
  br label %47

47:                                               ; preds = %43
  br label %48

48:                                               ; preds = %47
  br label %49

49:                                               ; preds = %48
  store i32 -1, ptr %4, align 4, !tbaa !10
  br label %60

50:                                               ; No predecessors!
  br label %51

51:                                               ; preds = %50
  br label %52

52:                                               ; preds = %51
  br label %53

53:                                               ; preds = %52
  br label %54

54:                                               ; preds = %53, %20
  %55 = load ptr, ptr %2, align 8, !tbaa !12
  %56 = getelementptr inbounds nuw %struct.H5C_log_json_udata_t, ptr %55, i32 0, i32 1
  %57 = load ptr, ptr %56, align 8, !tbaa !24
  %58 = load i64, ptr %3, align 8, !tbaa !22
  %59 = mul i64 %58, 1
  call void @llvm.memset.p0.i64(ptr align 1 %57, i8 0, i64 %59, i1 false)
  br label %60

60:                                               ; preds = %54, %49
  br label %61

61:                                               ; preds = %60, %12
  %62 = load i32, ptr %4, align 4, !tbaa !10
  call void @llvm.lifetime.end.p0(i64 1, ptr %5) #8
  call void @llvm.lifetime.end.p0(i64 4, ptr %4) #8
  call void @llvm.lifetime.end.p0(i64 8, ptr %3) #8
  ret i32 %62
}

; Function Attrs: nounwind uwtable
define internal i32 @H5C__json_write_unpin_entry_log_msg(ptr noundef %0, ptr noundef %1, i32 noundef %2) #0 {
  %4 = alloca ptr, align 8
  %5 = alloca ptr, align 8
  %6 = alloca i32, align 4
  %7 = alloca ptr, align 8
  %8 = alloca i32, align 4
  %9 = alloca i8, align 1
  store ptr %0, ptr %4, align 8, !tbaa !28
  store ptr %1, ptr %5, align 8, !tbaa !29
  store i32 %2, ptr %6, align 4, !tbaa !10
  call void @llvm.lifetime.start.p0(i64 8, ptr %7) #8
  %10 = load ptr, ptr %4, align 8, !tbaa !28
  store ptr %10, ptr %7, align 8, !tbaa !12
  call void @llvm.lifetime.start.p0(i64 4, ptr %8) #8
  store i32 0, ptr %8, align 4, !tbaa !10
  call void @llvm.lifetime.start.p0(i64 1, ptr %9) #8
  store i8 0, ptr %9, align 1, !tbaa !14
  %11 = load i8, ptr @H5C_init_g, align 1, !tbaa !14, !range !16, !noundef !17
  %12 = trunc i8 %11 to i1
  br i1 %12, label %17, label %13

13:                                               ; preds = %3
  %14 = load i8, ptr @H5_libterm_g, align 1, !tbaa !14, !range !16, !noundef !17
  %15 = trunc i8 %14 to i1
  %16 = xor i1 %15, true
  br label %17

17:                                               ; preds = %13, %3
  %18 = phi i1 [ true, %3 ], [ %16, %13 ]
  %19 = xor i1 %18, true
  %20 = xor i1 %19, true
  %21 = zext i1 %20 to i32
  %22 = sext i32 %21 to i64
  %23 = call i64 @llvm.expect.i64(i64 %22, i64 1)
  %24 = icmp ne i64 %23, 0
  br i1 %24, label %25, label %59

25:                                               ; preds = %17
  %26 = load ptr, ptr %7, align 8, !tbaa !12
  %27 = getelementptr inbounds nuw %struct.H5C_log_json_udata_t, ptr %26, i32 0, i32 1
  %28 = load ptr, ptr %27, align 8, !tbaa !24
  %29 = call i64 @time(ptr noundef null) #8
  %30 = load ptr, ptr %5, align 8, !tbaa !29
  %31 = getelementptr inbounds nuw %struct.H5C_cache_entry_t, ptr %30, i32 0, i32 1
  %32 = load i64, ptr %31, align 8, !tbaa !31
  %33 = load i32, ptr %6, align 4, !tbaa !10
  %34 = call i32 (ptr, i64, ptr, ...) @snprintf(ptr noundef %28, i64 noundef 1024, ptr noundef @.str.30, i64 noundef %29, i64 noundef %32, i32 noundef %33) #8
  %35 = load ptr, ptr %7, align 8, !tbaa !12
  %36 = call i32 @H5C__json_write_log_message(ptr noundef %35)
  %37 = icmp slt i32 %36, 0
  br i1 %37, label %38, label %57

38:                                               ; preds = %25
  br label %39

39:                                               ; preds = %38
  br label %40

40:                                               ; preds = %39
  br label %41

41:                                               ; preds = %40
  %42 = load i64, ptr @H5E_CACHE_g, align 8, !tbaa !22
  %43 = load i64, ptr @H5E_LOGGING_g, align 8, !tbaa !22
  %44 = call i32 (ptr, ptr, i32, i64, i64, ptr, ...) @H5E_printf_stack(ptr noundef @.str, ptr noundef @__func__.H5C__json_write_unpin_entry_log_msg, i32 noundef 1058, i64 noundef %42, i64 noundef %43, ptr noundef @.str.10)
  br label %45

45:                                               ; preds = %41
  br label %46

46:                                               ; preds = %45
  store i8 1, ptr %9, align 1, !tbaa !14
  %47 = load i8, ptr %9, align 1, !tbaa !14, !range !16, !noundef !17
  %48 = trunc i8 %47 to i1
  %49 = zext i1 %48 to i8
  store i8 %49, ptr %9, align 1, !tbaa !14
  br label %50

50:                                               ; preds = %46
  br label %51

51:                                               ; preds = %50
  br label %52

52:                                               ; preds = %51
  store i32 -1, ptr %8, align 4, !tbaa !10
  br label %58

53:                                               ; No predecessors!
  br label %54

54:                                               ; preds = %53
  br label %55

55:                                               ; preds = %54
  br label %56

56:                                               ; preds = %55
  br label %57

57:                                               ; preds = %56, %25
  br label %58

58:                                               ; preds = %57, %52
  br label %59

59:                                               ; preds = %58, %17
  %60 = load i32, ptr %8, align 4, !tbaa !10
  call void @llvm.lifetime.end.p0(i64 1, ptr %9) #8
  call void @llvm.lifetime.end.p0(i64 4, ptr %8) #8
  call void @llvm.lifetime.end.p0(i64 8, ptr %7) #8
  ret i32 %60
}